target datalayout = "e-m:e-p270:32:32-p271:32:32-p272:64:64-i64:64-i128:128-f80:128-n8:16:32:64-S128"
target triple = "x86_64-unknown-linux-gnu"

%"class.std::__cxx11::basic_string" = type { %"struct.std::__cxx11::basic_string<char>::_Alloc_hider", i64, %union.anon }
%"struct.std::__cxx11::basic_string<char>::_Alloc_hider" = type { ptr }
%union.anon = type { i64, [8 x i8] }
%"class.std::locale" = type { ptr }
%"class.std::__cxx11::basic_ostringstream" = type { %"class.std::basic_ostream.base", %"class.std::__cxx11::basic_stringbuf", %"class.std::basic_ios" }
%"class.std::basic_ostream.base" = type { ptr }
%"class.std::__cxx11::basic_stringbuf" = type { %"class.std::basic_streambuf", i32, %"class.std::__cxx11::basic_string" }
%"class.std::basic_streambuf" = type { ptr, ptr, ptr, ptr, ptr, ptr, ptr, %"class.std::locale" }
%"class.std::basic_ios" = type { %"class.std::ios_base", ptr, i8, i8, ptr, ptr, ptr, ptr }
%"class.std::ios_base" = type { ptr, i64, i64, i32, i32, i32, ptr, %"struct.std::ios_base::_Words", [8 x %"struct.std::ios_base::_Words"], i32, ptr, %"class.std::locale" }
%"struct.std::ios_base::_Words" = type { ptr, i64 }
%"class.fmt::v8::basic_string_view" = type { ptr, i64 }
%"class.fmt::v8::basic_format_string" = type { %"class.fmt::v8::basic_string_view" }
%"class.fmt::v8::basic_format_args" = type { i64, %union.anon.757 }
%union.anon.757 = type { ptr }
%"class.fmt::v8::format_arg_store.776" = type { %"struct.fmt::v8::detail::arg_data.777" }
%"struct.fmt::v8::detail::arg_data.777" = type { [3 x %"class.fmt::v8::detail::value"] }
%"class.fmt::v8::detail::value" = type { %union.anon.758 }
%union.anon.758 = type { i128 }
%"struct.fmt::v8::detail::arg_mapper" = type { i8 }

@.str.37 = private unnamed_addr constant [1 x i8] zeroinitializer, align 1
@.str.46 = private unnamed_addr constant [2 x i8] c"-\00", align 1
@.str.47 = private unnamed_addr constant [8 x i8] c"{}{}-{}\00", align 1

; Function Attrs: mustprogress uwtable
define linkonce_odr void @_ZN3fmt2v816make_format_argsINS0_20basic_format_contextINS0_8appenderEcEEJRPKcRiS8_EEENS0_16format_arg_storeIT_JDpNSt9remove_cvINSt16remove_referenceIT0_E4typeEE4typeEEEEDpOSD_(ptr noalias sret(%"class.fmt::v8::format_arg_store.776") align 16 %agg.result, ptr noundef nonnull align 8 dereferenceable(8) %args, ptr noundef nonnull align 4 dereferenceable(4) %args1, ptr noundef nonnull align 4 dereferenceable(4) %args3) #0 comdat {
entry:
  %this.addr.i44 = alloca ptr, align 8
  %val.addr.i45 = alloca i32, align 4
  %this.addr.i41 = alloca ptr, align 8
  %val.addr.i42 = alloca i32, align 4
  %this.addr.i38 = alloca ptr, align 8
  %val.addr.i39 = alloca i32, align 4
  %this.addr.i35 = alloca ptr, align 8
  %val.addr.i36 = alloca i32, align 4
  %this.addr.i32 = alloca ptr, align 8
  %val.addr.i33 = alloca ptr, align 8
  %this.addr.i29 = alloca ptr, align 8
  %val.addr.i30 = alloca ptr, align 8
  %this.addr.i28 = alloca ptr, align 8
  %.addr.i = alloca ptr, align 8
  %.addr1.i = alloca i32, align 4
  %.addr2.i = alloca i32, align 4
  %.addr3.i = alloca ptr, align 8
  %.addr4.i = alloca ptr, align 8
  %.addr5.i = alloca ptr, align 8
  %this.addr.i26 = alloca ptr, align 8
  %init.addr.i = alloca ptr, align 8
  %init.addr2.i = alloca ptr, align 8
  %init.addr4.i = alloca ptr, align 8
  %retval.i16 = alloca %"class.fmt::v8::detail::value", align 16
  %val.addr.i17 = alloca ptr, align 8
  %arg.i18 = alloca ptr, align 8
  %ref.tmp.i19 = alloca i32, align 4
  %ref.tmp1.i20 = alloca %"struct.fmt::v8::detail::arg_mapper", align 1
  %formattable_char.i21 = alloca i8, align 1
  %formattable_const.i22 = alloca i8, align 1
  %formattable_pointer.i23 = alloca i8, align 1
  %formattable.i24 = alloca i8, align 1
  %retval.i7 = alloca %"class.fmt::v8::detail::value", align 16
  %val.addr.i8 = alloca ptr, align 8
  %arg.i9 = alloca ptr, align 8
  %ref.tmp.i10 = alloca i32, align 4
  %ref.tmp1.i11 = alloca %"struct.fmt::v8::detail::arg_mapper", align 1
  %formattable_char.i12 = alloca i8, align 1
  %formattable_const.i13 = alloca i8, align 1
  %formattable_pointer.i14 = alloca i8, align 1
  %formattable.i15 = alloca i8, align 1
  %retval.i = alloca %"class.fmt::v8::detail::value", align 16
  %val.addr.i = alloca ptr, align 8
  %arg.i = alloca ptr, align 8
  %ref.tmp.i5 = alloca ptr, align 8
  %ref.tmp1.i = alloca %"struct.fmt::v8::detail::arg_mapper", align 1
  %formattable_char.i = alloca i8, align 1
  %formattable_const.i = alloca i8, align 1
  %formattable_pointer.i = alloca i8, align 1
  %formattable.i = alloca i8, align 1
  %this.addr.i = alloca ptr, align 8
  %args.addr.i = alloca ptr, align 8
  %args.addr2.i = alloca ptr, align 8
  %args.addr4.i = alloca ptr, align 8
  %ref.tmp.i = alloca %"class.fmt::v8::detail::value", align 16
  %ref.tmp7.i = alloca %"class.fmt::v8::detail::value", align 16
  %ref.tmp11.i = alloca %"class.fmt::v8::detail::value", align 16
  %args.addr = alloca ptr, align 8
  %args.addr2 = alloca ptr, align 8
  %args.addr4 = alloca ptr, align 8
  store ptr %args, ptr %args.addr, align 8
  store ptr %args1, ptr %args.addr2, align 8
  store ptr %args3, ptr %args.addr4, align 8
  %0 = load ptr, ptr %args.addr, align 8
  %1 = load ptr, ptr %args.addr2, align 8
  %2 = load ptr, ptr %args.addr4, align 8
  store ptr %agg.result, ptr %this.addr.i, align 8
  store ptr %0, ptr %args.addr.i, align 8
  store ptr %1, ptr %args.addr2.i, align 8
  store ptr %2, ptr %args.addr4.i, align 8
  %this5.i = load ptr, ptr %this.addr.i, align 8
  %3 = load ptr, ptr %args.addr.i, align 8
  store ptr %3, ptr %val.addr.i, align 8
  %4 = load ptr, ptr %val.addr.i, align 8
  %5 = load ptr, ptr %4, align 8
  store ptr %ref.tmp1.i, ptr %this.addr.i29, align 8
  store ptr %5, ptr %val.addr.i30, align 8
  %6 = load ptr, ptr %val.addr.i30, align 8
  store ptr %6, ptr %ref.tmp.i5, align 8
  store ptr %ref.tmp.i5, ptr %arg.i, align 8
  store i8 1, ptr %formattable_char.i, align 1
  store i8 1, ptr %formattable_const.i, align 1
  store i8 1, ptr %formattable_pointer.i, align 1
  store i8 1, ptr %formattable.i, align 1
  %7 = load ptr, ptr %arg.i, align 8
  %8 = load ptr, ptr %7, align 8
  store ptr %retval.i, ptr %this.addr.i32, align 8
  store ptr %8, ptr %val.addr.i33, align 8
  %this1.i34 = load ptr, ptr %this.addr.i32, align 8
  %9 = load ptr, ptr %val.addr.i33, align 8
  store ptr %9, ptr %this1.i34, align 16
  %10 = load { i64, i64 }, ptr %retval.i, align 16
  %11 = extractvalue { i64, i64 } %10, 0
  store i64 %11, ptr %ref.tmp.i, align 16
  %12 = getelementptr inbounds { i64, i64 }, ptr %ref.tmp.i, i32 0, i32 1
  %13 = extractvalue { i64, i64 } %10, 1
  store i64 %13, ptr %12, align 8
  %14 = load ptr, ptr %args.addr2.i, align 8
  store ptr %14, ptr %val.addr.i17, align 8
  %15 = load ptr, ptr %val.addr.i17, align 8
  %16 = load i32, ptr %15, align 4
  store ptr %ref.tmp1.i20, ptr %this.addr.i35, align 8
  store i32 %16, ptr %val.addr.i36, align 4
  %17 = load i32, ptr %val.addr.i36, align 4
  store i32 %17, ptr %ref.tmp.i19, align 4
  store ptr %ref.tmp.i19, ptr %arg.i18, align 8
  store i8 1, ptr %formattable_char.i21, align 1
  store i8 1, ptr %formattable_const.i22, align 1
  store i8 1, ptr %formattable_pointer.i23, align 1
  store i8 1, ptr %formattable.i24, align 1
  %18 = load ptr, ptr %arg.i18, align 8
  %19 = load i32, ptr %18, align 4
  store ptr %retval.i16, ptr %this.addr.i41, align 8
  store i32 %19, ptr %val.addr.i42, align 4
  %this1.i43 = load ptr, ptr %this.addr.i41, align 8
  %20 = load i32, ptr %val.addr.i42, align 4
  store i32 %20, ptr %this1.i43, align 16
  %21 = load { i64, i64 }, ptr %retval.i16, align 16
  %22 = extractvalue { i64, i64 } %21, 0
  store i64 %22, ptr %ref.tmp7.i, align 16
  %23 = getelementptr inbounds { i64, i64 }, ptr %ref.tmp7.i, i32 0, i32 1
  %24 = extractvalue { i64, i64 } %21, 1
  store i64 %24, ptr %23, align 8
  %25 = load ptr, ptr %args.addr4.i, align 8
  store ptr %25, ptr %val.addr.i8, align 8
  %26 = load ptr, ptr %val.addr.i8, align 8
  %27 = load i32, ptr %26, align 4
  store ptr %ref.tmp1.i11, ptr %this.addr.i38, align 8
  store i32 %27, ptr %val.addr.i39, align 4
  %28 = load i32, ptr %val.addr.i39, align 4
  store i32 %28, ptr %ref.tmp.i10, align 4
  store ptr %ref.tmp.i10, ptr %arg.i9, align 8
  store i8 1, ptr %formattable_char.i12, align 1
  store i8 1, ptr %formattable_const.i13, align 1
  store i8 1, ptr %formattable_pointer.i14, align 1
  store i8 1, ptr %formattable.i15, align 1
  %29 = load ptr, ptr %arg.i9, align 8
  %30 = load i32, ptr %29, align 4
  store ptr %retval.i7, ptr %this.addr.i44, align 8
  store i32 %30, ptr %val.addr.i45, align 4
  %this1.i46 = load ptr, ptr %this.addr.i44, align 8
  %31 = load i32, ptr %val.addr.i45, align 4
  store i32 %31, ptr %this1.i46, align 16
  %32 = load { i64, i64 }, ptr %retval.i7, align 16
  %33 = extractvalue { i64, i64 } %32, 0
  store i64 %33, ptr %ref.tmp11.i, align 16
  %34 = getelementptr inbounds { i64, i64 }, ptr %ref.tmp11.i, i32 0, i32 1
  %35 = extractvalue { i64, i64 } %32, 1
  store i64 %35, ptr %34, align 8
  store ptr %this5.i, ptr %this.addr.i26, align 8
  store ptr %ref.tmp.i, ptr %init.addr.i, align 8
  store ptr %ref.tmp7.i, ptr %init.addr2.i, align 8
  store ptr %ref.tmp11.i, ptr %init.addr4.i, align 8
  %this5.i27 = load ptr, ptr %this.addr.i26, align 8
  %36 = load ptr, ptr %init.addr.i, align 8
  call void @llvm.memcpy.p0.p0.i64(ptr align 16 %this5.i27, ptr align 16 %36, i64 16, i1 false)
  %arrayinit.element.i = getelementptr inbounds %"class.fmt::v8::detail::value", ptr %this5.i27, i64 1
  %37 = load ptr, ptr %init.addr2.i, align 8
  call void @llvm.memcpy.p0.p0.i64(ptr align 16 %arrayinit.element.i, ptr align 16 %37, i64 16, i1 false)
  %arrayinit.element6.i = getelementptr inbounds %"class.fmt::v8::detail::value", ptr %arrayinit.element.i, i64 1
  %38 = load ptr, ptr %init.addr4.i, align 8
  call void @llvm.memcpy.p0.p0.i64(ptr align 16 %arrayinit.element6.i, ptr align 16 %38, i64 16, i1 false)
  store ptr %this5.i, ptr %this.addr.i28, align 8
  %39 = load ptr, ptr %args.addr.i, align 8
  %40 = load ptr, ptr %args.addr2.i, align 8
  %41 = load ptr, ptr %args.addr4.i, align 8
  store ptr null, ptr %.addr.i, align 8
  store i32 0, ptr %.addr1.i, align 4
  store i32 0, ptr %.addr2.i, align 4
  store ptr %39, ptr %.addr3.i, align 8
  store ptr %40, ptr %.addr4.i, align 8
  store ptr %41, ptr %.addr5.i, align 8
  ret void
}

; Function Attrs: mustprogress nounwind uwtable
define linkonce_odr noundef i64 @_ZNSt11char_traitsIcE6lengthEPKc(ptr noundef %__s) #2 comdat align 2 {
entry:
  %__s.addr = alloca ptr, align 8
  store ptr %__s, ptr %__s.addr, align 8
  %0 = load ptr, ptr %__s.addr, align 8
  %call = call i64 @strlen(ptr noundef %0) #1
  ret i64 %call
}

; Function Attrs: mustprogress uwtable
define void @_ZNK8facebook5velox21IntervalYearMonthType13valueToStringB5cxx11Ei(ptr noalias sret(%"class.std::__cxx11::basic_string") align 8 %agg.result, ptr noundef nonnull align 8 dereferenceable(17) %this, i32 noundef %value) #0 align 2 personality ptr @__gxx_personality_v0 {
entry:
  %.addr.i = alloca ptr, align 8
  %this.addr.i19 = alloca ptr, align 8
  %this.addr.i.i = alloca ptr, align 8
  %desc.addr.i.i = alloca i64, align 8
  %values.addr.i.i = alloca ptr, align 8
  %this.addr.i17 = alloca ptr, align 8
  %store.addr.i = alloca ptr, align 8
  %retval.i = alloca %"class.fmt::v8::basic_string_view", align 8
  %this.addr.i15 = alloca ptr, align 8
  %this.addr.i11 = alloca ptr, align 8
  %s.addr.i12 = alloca ptr, align 8
  %this.addr.i = alloca ptr, align 8
  %s.addr.i = alloca ptr, align 8
  %result.ptr.i = alloca ptr, align 8
  %fmt.i = alloca %"class.fmt::v8::basic_format_string", align 8
  %args.addr.i = alloca ptr, align 8
  %args.addr2.i = alloca ptr, align 8
  %args.addr4.i = alloca ptr, align 8
  %agg.tmp.i = alloca %"class.fmt::v8::basic_string_view", align 8
  %agg.tmp5.i = alloca %"class.fmt::v8::basic_format_args", align 8
  %ref.tmp.i = alloca %"class.fmt::v8::format_arg_store.776", align 16
  %result.ptr = alloca ptr, align 8
  %this.addr = alloca ptr, align 8
  %value.addr = alloca i32, align 4
  %oss = alloca %"class.std::__cxx11::basic_ostringstream", align 8
  %sign = alloca ptr, align 8
  %ref.tmp = alloca %"class.std::__cxx11::basic_string", align 8
  %agg.tmp = alloca %"class.fmt::v8::basic_format_string", align 8
  %exn.slot = alloca ptr, align 8
  %ehselector.slot = alloca i32, align 4
  %ref.tmp2 = alloca i32, align 4
  %ref.tmp3 = alloca i32, align 4
  store ptr %agg.result, ptr %result.ptr, align 8
  store ptr %this, ptr %this.addr, align 8
  store i32 %value, ptr %value.addr, align 4
  call void @_ZNSt7__cxx1119basic_ostringstreamIcSt11char_traitsIcESaIcEEC1Ev(ptr noundef nonnull align 8 dereferenceable(112) %oss)
  store ptr @.str.37, ptr %sign, align 8
  %0 = load i32, ptr %value.addr, align 4
  %cmp = icmp slt i32 %0, 0
  br i1 %cmp, label %if.then, label %if.end

if.then:                                          ; preds = %entry
  store ptr @.str.46, ptr %sign, align 8
  %1 = load i32, ptr %value.addr, align 4
  %sub = sub nsw i32 0, %1
  store i32 %sub, ptr %value.addr, align 4
  br label %if.end

if.end:                                           ; preds = %if.then, %entry
  store ptr %agg.tmp, ptr %this.addr.i, align 8
  store ptr @.str.47, ptr %s.addr.i, align 8
  %this1.i = load ptr, ptr %this.addr.i, align 8
  %2 = load ptr, ptr %s.addr.i, align 8
  store ptr %this1.i, ptr %this.addr.i11, align 8
  store ptr %2, ptr %s.addr.i12, align 8
  %this1.i13 = load ptr, ptr %this.addr.i11, align 8
  %3 = load ptr, ptr %s.addr.i12, align 8
  store ptr %3, ptr %this1.i13, align 8
  %size_.i = getelementptr inbounds %"class.fmt::v8::basic_string_view", ptr %this1.i13, i32 0, i32 1
  %4 = load ptr, ptr %s.addr.i12, align 8
  %call.i14 = call noundef i64 @_ZNSt11char_traitsIcE6lengthEPKc(ptr noundef %4)
  store i64 %call.i14, ptr %size_.i, align 8
  %5 = load ptr, ptr %s.addr.i, align 8
  store ptr %5, ptr %.addr.i, align 8
  br label %invoke.cont

invoke.cont:                                      ; preds = %if.end
  %6 = load i32, ptr %value.addr, align 4
  %div = sdiv i32 %6, 12
  store i32 %div, ptr %ref.tmp2, align 4
  %7 = load i32, ptr %value.addr, align 4
  %rem = srem i32 %7, 12
  store i32 %rem, ptr %ref.tmp3, align 4
  %8 = getelementptr inbounds { ptr, i64 }, ptr %agg.tmp, i32 0, i32 0
  %9 = load ptr, ptr %8, align 8
  %10 = getelementptr inbounds { ptr, i64 }, ptr %agg.tmp, i32 0, i32 1
  %11 = load i64, ptr %10, align 8
  call void @llvm.experimental.noalias.scope.decl(metadata !19)
  store ptr %ref.tmp, ptr %result.ptr.i, align 8, !noalias !19
  store ptr %9, ptr %fmt.i, align 8, !noalias !19
  %12 = getelementptr inbounds { ptr, i64 }, ptr %fmt.i, i32 0, i32 1
  store i64 %11, ptr %12, align 8, !noalias !19
  store ptr %sign, ptr %args.addr.i, align 8, !noalias !19
  store ptr %ref.tmp2, ptr %args.addr2.i, align 8, !noalias !19
  store ptr %ref.tmp3, ptr %args.addr4.i, align 8, !noalias !19
  store ptr %fmt.i, ptr %this.addr.i15, align 8
  %this1.i16 = load ptr, ptr %this.addr.i15, align 8
  call void @llvm.memcpy.p0.p0.i64(ptr align 8 %retval.i, ptr align 8 %this1.i16, i64 16, i1 false)
  %13 = load { ptr, i64 }, ptr %retval.i, align 8
  %14 = extractvalue { ptr, i64 } %13, 0
  store ptr %14, ptr %agg.tmp.i, align 8, !noalias !19
  %15 = getelementptr inbounds { ptr, i64 }, ptr %agg.tmp.i, i32 0, i32 1
  %16 = extractvalue { ptr, i64 } %13, 1
  store i64 %16, ptr %15, align 8, !noalias !19
  %17 = load ptr, ptr %args.addr.i, align 8, !noalias !19
  %18 = load ptr, ptr %args.addr2.i, align 8, !noalias !19
  %19 = load ptr, ptr %args.addr4.i, align 8, !noalias !19
  invoke void @_ZN3fmt2v816make_format_argsINS0_20basic_format_contextINS0_8appenderEcEEJRPKcRiS8_EEENS0_16format_arg_storeIT_JDpNSt9remove_cvINSt16remove_referenceIT0_E4typeEE4typeEEEEDpOSD_(ptr sret(%"class.fmt::v8::format_arg_store.776") align 16 %ref.tmp.i, ptr noundef nonnull align 8 dereferenceable(8) %17, ptr noundef nonnull align 4 dereferenceable(4) %18, ptr noundef nonnull align 4 dereferenceable(4) %19)
          to label %.noexc unwind label %lpad

.noexc:                                           ; preds = %invoke.cont
  store ptr %agg.tmp5.i, ptr %this.addr.i17, align 8
  store ptr %ref.tmp.i, ptr %store.addr.i, align 8
  %this1.i18 = load ptr, ptr %this.addr.i17, align 8
  %20 = load ptr, ptr %store.addr.i, align 8
  store ptr %20, ptr %this.addr.i19, align 8
  %this1.i20 = load ptr, ptr %this.addr.i19, align 8
  store ptr %this1.i18, ptr %this.addr.i.i, align 8
  store i64 284, ptr %desc.addr.i.i, align 8
  store ptr %this1.i20, ptr %values.addr.i.i, align 8
  %this1.i.i = load ptr, ptr %this.addr.i.i, align 8
  %21 = load i64, ptr %desc.addr.i.i, align 8
  store i64 %21, ptr %this1.i.i, align 8
  %22 = getelementptr inbounds %"class.fmt::v8::basic_format_args", ptr %this1.i.i, i32 0, i32 1
  %23 = load ptr, ptr %values.addr.i.i, align 8
  store ptr %23, ptr %22, align 8
  br label %.noexc9

.noexc9:                                          ; preds = %.noexc
  %24 = load ptr, ptr %agg.tmp.i, align 8, !noalias !19
  %25 = getelementptr inbounds { ptr, i64 }, ptr %agg.tmp.i, i32 0, i32 1
  %26 = load i64, ptr %25, align 8, !noalias !19
  %27 = load i64, ptr %agg.tmp5.i, align 8, !noalias !19
  %28 = getelementptr inbounds { i64, ptr }, ptr %agg.tmp5.i, i32 0, i32 1
  %29 = load ptr, ptr %28, align 8, !noalias !19
  invoke void @_ZN3fmt2v87vformatB5cxx11ENS0_17basic_string_viewIcEENS0_17basic_format_argsINS0_20basic_format_contextINS0_8appenderEcEEEE(ptr sret(%"class.std::__cxx11::basic_string") align 8 %ref.tmp, ptr %24, i64 %26, i64 %27, ptr %29)
          to label %_ZN3fmt2v86formatIJRPKciiEEENSt7__cxx1112basic_stringIcSt11char_traitsIcESaIcEEENS0_19basic_format_stringIcJDpNS0_13type_identityIT_E4typeEEEEDpOSD_.exit unwind label %lpad

_ZN3fmt2v86formatIJRPKciiEEENSt7__cxx1112basic_stringIcSt11char_traitsIcESaIcEEENS0_19basic_format_stringIcJDpNS0_13type_identityIT_E4typeEEEEDpOSD_.exit: ; preds = %.noexc9
  br label %invoke.cont4

invoke.cont4:                                     ; preds = %_ZN3fmt2v86formatIJRPKciiEEENSt7__cxx1112basic_stringIcSt11char_traitsIcESaIcEEENS0_19basic_format_stringIcJDpNS0_13type_identityIT_E4typeEEEEDpOSD_.exit
  %call = invoke noundef nonnull align 8 dereferenceable(8) ptr @_ZStlsIcSt11char_traitsIcESaIcEERSt13basic_ostreamIT_T0_ES7_RKNSt7__cxx1112basic_stringIS4_S5_T1_EE(ptr noundef nonnull align 8 dereferenceable(8) %oss, ptr noundef nonnull align 8 dereferenceable(32) %ref.tmp)
          to label %invoke.cont6 unwind label %lpad5

invoke.cont6:                                     ; preds = %invoke.cont4
  call void @_ZNSt7__cxx1112basic_stringIcSt11char_traitsIcESaIcEED1Ev(ptr noundef nonnull align 8 dereferenceable(32) %ref.tmp) #1
  invoke void @_ZNKSt7__cxx1119basic_ostringstreamIcSt11char_traitsIcESaIcEE3strEv(ptr sret(%"class.std::__cxx11::basic_string") align 8 %agg.result, ptr noundef nonnull align 8 dereferenceable(112) %oss)
          to label %invoke.cont7 unwind label %lpad

invoke.cont7:                                     ; preds = %invoke.cont6
  call void @_ZNSt7__cxx1119basic_ostringstreamIcSt11char_traitsIcESaIcEED1Ev(ptr noundef nonnull align 8 dereferenceable(112) %oss) #1
  ret void

lpad:                                             ; preds = %invoke.cont6, %.noexc9, %invoke.cont
  %30 = landingpad { ptr, i32 }
          cleanup
  %31 = extractvalue { ptr, i32 } %30, 0
  store ptr %31, ptr %exn.slot, align 8
  %32 = extractvalue { ptr, i32 } %30, 1
  store i32 %32, ptr %ehselector.slot, align 4
  br label %ehcleanup

lpad5:                                            ; preds = %invoke.cont4
  %33 = landingpad { ptr, i32 }
          cleanup
  %34 = extractvalue { ptr, i32 } %33, 0
  store ptr %34, ptr %exn.slot, align 8
  %35 = extractvalue { ptr, i32 } %33, 1
  store i32 %35, ptr %ehselector.slot, align 4
  call void @_ZNSt7__cxx1112basic_stringIcSt11char_traitsIcESaIcEED1Ev(ptr noundef nonnull align 8 dereferenceable(32) %ref.tmp) #1
  br label %ehcleanup

ehcleanup:                                        ; preds = %lpad5, %lpad
  call void @_ZNSt7__cxx1119basic_ostringstreamIcSt11char_traitsIcESaIcEED1Ev(ptr noundef nonnull align 8 dereferenceable(112) %oss) #1
  br label %eh.resume

eh.resume:                                        ; preds = %ehcleanup
  %exn = load ptr, ptr %exn.slot, align 8
  %sel = load i32, ptr %ehselector.slot, align 4
  %lpad.val = insertvalue { ptr, i32 } poison, ptr %exn, 0
  %lpad.val8 = insertvalue { ptr, i32 } %lpad.val, i32 %sel, 1
  resume { ptr, i32 } %lpad.val8
}