; Function Attrs: mustprogress uwtable
define void @_ZNK8facebook5velox21IntervalYearMonthType13valueToStringB5cxx11Ei(ptr noalias sret(%"class.std::__cxx11::basic_string") align 8 %agg.result, ptr nocapture noundef nonnull readnone align 8 dereferenceable(17) %this, i32 noundef %value) local_unnamed_addr #0 align 2 personality ptr @__gxx_personality_v0 {
entry:
  %ref.tmp.i = alloca %"class.fmt::v8::format_arg_store.776", align 16
  %oss = alloca %"class.std::__cxx11::basic_ostringstream", align 8
  %ref.tmp = alloca %"class.std::__cxx11::basic_string", align 8
  call void @_ZNSt7__cxx1119basic_ostringstreamIcSt11char_traitsIcESaIcEEC1Ev(ptr noundef nonnull align 8 dereferenceable(112) %oss)
  %cmp = icmp slt i32 %value, 0
  %spec.select9 = call i32 @llvm.abs.i32(i32 %value, i1 true)
  %div7 = udiv i32 %spec.select9, 12
  %rem8 = urem i32 %spec.select9, 12
  %0 = select i1 %cmp, i64 ptrtoint (ptr @.str.46 to i64), i64 ptrtoint (ptr @.str.37 to i64)
  %retval.i16.sroa.0.0.insert.ext.i = zext nneg i32 %div7 to i64
  %retval.i7.sroa.0.0.insert.ext.i = zext nneg i32 %rem8 to i64
  store i64 %0, ptr %ref.tmp.i, align 16, !alias.scope !180
  %arrayinit.element.i.i = getelementptr inbounds i8, ptr %ref.tmp.i, i64 16
  store i64 %retval.i16.sroa.0.0.insert.ext.i, ptr %arrayinit.element.i.i, align 16, !alias.scope !180
  %arrayinit.element6.i.i = getelementptr inbounds i8, ptr %ref.tmp.i, i64 32
  store i64 %retval.i7.sroa.0.0.insert.ext.i, ptr %arrayinit.element6.i.i, align 16, !alias.scope !180
  invoke void @_ZN3fmt2v87vformatB5cxx11ENS0_17basic_string_viewIcEENS0_17basic_format_argsINS0_20basic_format_contextINS0_8appenderEcEEEE(ptr nonnull sret(%"class.std::__cxx11::basic_string") align 8 %ref.tmp, ptr nonnull @.str.47, i64 7, i64 284, ptr nonnull %ref.tmp.i)
          to label %invoke.cont4 unwind label %lpad

invoke.cont4:                                     ; preds = %entry
  %call = invoke noundef nonnull align 8 dereferenceable(8) ptr @_ZStlsIcSt11char_traitsIcESaIcEERSt13basic_ostreamIT_T0_ES7_RKNSt7__cxx1112basic_stringIS4_S5_T1_EE(ptr noundef nonnull align 8 dereferenceable(8) %oss, ptr noundef nonnull align 8 dereferenceable(32) %ref.tmp)
          to label %invoke.cont6 unwind label %lpad5

invoke.cont6:                                     ; preds = %invoke.cont4
  call void @_ZNSt7__cxx1112basic_stringIcSt11char_traitsIcESaIcEED1Ev(ptr noundef nonnull align 8 dereferenceable(32) %ref.tmp) #37
  invoke void @_ZNKSt7__cxx1119basic_ostringstreamIcSt11char_traitsIcESaIcEE3strEv(ptr sret(%"class.std::__cxx11::basic_string") align 8 %agg.result, ptr noundef nonnull align 8 dereferenceable(112) %oss)
          to label %invoke.cont7 unwind label %lpad

invoke.cont7:                                     ; preds = %invoke.cont6
  call void @_ZNSt7__cxx1119basic_ostringstreamIcSt11char_traitsIcESaIcEED1Ev(ptr noundef nonnull align 8 dereferenceable(112) %oss) #37
  ret void

lpad:                                             ; preds = %invoke.cont6, %entry
  %1 = landingpad { ptr, i32 }
          cleanup
  br label %ehcleanup

lpad5:                                            ; preds = %invoke.cont4
  %2 = landingpad { ptr, i32 }
          cleanup
  call void @_ZNSt7__cxx1112basic_stringIcSt11char_traitsIcESaIcEED1Ev(ptr noundef nonnull align 8 dereferenceable(32) %ref.tmp) #37
  br label %ehcleanup

ehcleanup:                                        ; preds = %lpad5, %lpad
  %.pn = phi { ptr, i32 } [ %1, %lpad ], [ %2, %lpad5 ]
  call void @_ZNSt7__cxx1119basic_ostringstreamIcSt11char_traitsIcESaIcEED1Ev(ptr noundef nonnull align 8 dereferenceable(112) %oss) #37
  resume { ptr, i32 } %.pn
}